(dp0
S'max_key'
p1
I15
sS'posts'
p2
(lp3
(lp4
(dp5
S'date'
p6
S'2017-08-08'
p7
sS'commentCounts'
p8
I22
sS'qacoins'
p9
I0
sS'key'
p10
I1
sS'subject'
p11
S'This is a test'
p12
sa(dp13
g6
S'2017-09-08'
p14
sg8
I232
sg9
I10
sg10
I2
sg11
S'This is another test'
p15
sa(dp16
g6
S'2017-09-11'
p17
sg8
I122
sg9
I5
sg10
I3
sg11
S'This is the last test'
p18
sa(dp19
S'date'
p20
S'2017-12-03'
p21
sS'commentCounts'
p22
I0
sS'qacoins'
p23
I0
sS'key'
p24
I4
sS'subject'
p25
Vtest 
p26
sa(dp27
S'date'
p28
S'2017-12-03'
p29
sS'commentCounts'
p30
I0
sS'qacoins'
p31
I0
sS'key'
p32
I5
sS'subject'
p33
Vtest
p34
sa(dp35
S'date'
p36
S'2017-12-03'
p37
sS'commentCounts'
p38
I0
sS'qacoins'
p39
I15
sS'key'
p40
I6
sS'subject'
p41
Vtest
p42
sa(dp43
S'date'
p44
S'2017-12-03'
p45
sS'commentCounts'
p46
I0
sS'qacoins'
p47
I20
sS'key'
p48
I7
sS'subject'
p49
Vtest
p50
sa(dp51
S'date'
p52
S'2017-12-03'
p53
sS'commentCounts'
p54
I0
sS'qacoins'
p55
I10
sS'key'
p56
I8
sS'subject'
p57
Vtest
p58
sa(dp59
S'date'
p60
S'2017-12-03'
p61
sS'commentCounts'
p62
I0
sS'qacoins'
p63
I5
sS'key'
p64
I9
sS'subject'
p65
Vtest
p66
sa(dp67
S'date'
p68
S'2017-12-03'
p69
sS'commentCounts'
p70
I0
sS'qacoins'
p71
I0
sS'key'
p72
I10
sS'subject'
p73
Vtest
p74
saa(lp75
(dp76
S'date'
p77
S'2017-12-03'
p78
sS'commentCounts'
p79
I0
sS'qacoins'
p80
I0
sS'key'
p81
I11
sS'subject'
p82
Vtest
p83
saa(lp84
(dp85
S'date'
p86
S'2017-12-03'
p87
sS'commentCounts'
p88
I0
sS'qacoins'
p89
I0
sS'key'
p90
I12
sS'subject'
p91
Vtest
p92
saa(lp93
(dp94
S'date'
p95
S'2017-12-03'
p96
sS'commentCounts'
p97
I0
sS'qacoins'
p98
I0
sS'key'
p99
I13
sS'subject'
p100
Vtest
p101
sa(dp102
S'date'
p103
S'2017-12-03'
p104
sS'commentCounts'
p105
I0
sS'qacoins'
p106
I0
sS'key'
p107
I14
sS'subject'
p108
Vtest
p109
sa(dp110
S'date'
p111
S'2017-12-03'
p112
sS'commentCounts'
p113
I0
sS'qacoins'
p114
I0
sS'key'
p115
I15
sS'subject'
p116
Vtest
p117
saas.