(dp0
I1
(dp1
S'question'
p2
(dp3
S'username'
p4
S'Michael Jordan'
p5
sS'tags'
p6
(lp7
(dp8
S'key'
p9
I0
sS'label'
p10
S'tag1'
p11
sa(dp12
g9
I1
sg10
S'tag2'
p13
sa(dp14
g9
I2
sg10
S'tag3'
p15
sa(dp16
g9
I3
sg10
S'tag4'
p17
sasS'userId'
p18
I2
sg2
S'This is a test,This is a test                This is a test,This is a test,This is a test,                This is a test,This is a test,This is a test,                This is a test,This is a test,This is a test'
p19
sS'date'
p20
S'2017-08-08'
p21
sS'subject'
p22
S'This is a test'
p23
ssS'answers'
p24
(lp25
(dp26
g4
S'John Wall'
p27
sg20
S'2017-09-21'
p28
sS'answer'
p29
S'this is an answer'
p30
sS'answerId'
p31
S'1'
p32
sS'subAnswer'
p33
(lp34
(dp35
S'aUserName'
p36
S'Stephen Curry'
p37
sS'pUserName'
p38
g5
sS'postDate'
p39
S'2017-12-07'
p40
sS'content'
p41
S'This is a sub-answer This is a sub-answer This is a sub-answer This is a sub-answer This is a sub-answer This is a sub-answer This is a sub-answer This is a sub-answer This is a sub-answer This is a sub-answer This is a sub-answer This is a sub-answer This is a sub-answer This is a sub-answer This is a sub-answer This is a sub-answer This is a sub-answer '
p42
sS'answerId'
p43
I11
sasa(dp44
g4
S'Tim Duncan'
p45
sg20
S'2017-09-22'
p46
sg29
S'this is another answer'
p47
sg31
S'2'
p48
sg33
(lp49
(dp50
g36
g37
sg38
g5
sg39
g40
sg41
g42
sg43
I12
sasa(dp51
g4
S'Kevin Love'
p52
sg20
S'2017-09-23'
p53
sg29
S'this is the last answer'
p54
sg31
S'3'
p55
sg33
(lp56
(dp57
g36
g37
sg38
g5
sg39
g40
sg41
g42
sg43
I13
sasassI2
(dp58
g2
(dp59
g4
S'Magic Johnson'
p60
sg6
(lp61
(dp62
g9
I0
sg10
g11
sa(dp63
g9
I1
sg10
g13
sasg18
I2
sg2
g19
sg20
S'2017-09-08'
p64
sg22
S'This is another test'
p65
ssg24
(lp66
(dp67
g4
g27
sg20
g28
sg29
g30
sg31
S'4'
p68
sg33
(lp69
(dp70
g36
g37
sg38
g60
sg39
g40
sg41
g42
sg43
I14
sasa(dp71
g4
g45
sg20
g46
sg29
g47
sg31
S'5'
p72
sg33
(lp73
(dp74
g36
g37
sg38
g60
sg39
g40
sg41
g42
sg43
I15
sasa(dp75
g4
g52
sg20
g53
sg29
g54
sg31
S'6'
p76
sg33
(lp77
(dp78
g36
g37
sg38
g60
sg39
g40
sg41
g42
sg43
I16
sasassI3
(dp79
g2
(dp80
g4
S'Ray Allen'
p81
sg6
(lp82
(dp83
g9
I0
sg10
g11
sasg18
I2
sg2
g19
sg20
S'2017-09-11'
p84
sg22
S'This is the last test'
p85
ssg24
(lp86
(dp87
g4
g27
sg20
g28
sg29
g30
sg31
S'7'
p88
sg33
(lp89
(dp90
g36
g37
sg38
g81
sg39
g40
sg41
g42
sg43
I17
sasa(dp91
g4
g45
sg20
g46
sg29
g47
sg31
S'8'
p92
sg33
(lp93
(dp94
g36
g37
sg38
g81
sg39
g40
sg41
g42
sg43
I18
sasa(dp95
g4
g52
sg20
g53
sg29
g54
sg31
S'9'
p96
sg33
(lp97
(dp98
g36
g37
sg38
g81
sg39
g40
sg41
g42
sg43
I19
sasassI4
(dp99
S'question'
p100
(dp101
S'username'
p102
VJean
p103
sS'tags'
p104
(lp105
(dp106
S'key'
p107
I0
sS'label'
p108
S'tag0'
p109
sa(dp110
g107
I1
sg108
S'tag1'
p111
sasg18
I1
sg100
Vnew post
p112
sS'date'
p113
S'2017-11-29'
p114
sS'subject'
p115
Vnew post
p116
ssS'answers'
p117
(lp118
(dp119
S'username'
p120
VJean
p121
sS'date'
p122
S'2017-11-29'
p123
sS'answer'
p124
Vthis is an reply
p125
sS'answerId'
p126
I10
sg33
(lp127
(dp128
g36
g37
sg38
g103
sg39
g40
sg41
g42
sg43
I20
sasa(dp129
S'username'
p130
VJean
p131
sS'date'
p132
S'2017-11-29'
p133
sS'answer'
p134
Vlet s test again
p135
sS'answerId'
p136
I11
sg33
(lp137
(dp138
g36
g37
sg38
g103
sg39
g40
sg41
g42
sg43
I21
sasa(dp139
S'username'
p140
VJean
p141
sS'date'
p142
S'2017-11-29'
p143
sS'answer'
p144
Vtest test test 
p145
sS'answerId'
p146
I12
sg33
(lp147
(dp148
g36
g37
sg38
g103
sg39
g40
sg41
g42
sg43
I22
sasa(dp149
S'username'
p150
VJean
p151
sS'date'
p152
S'2017-11-29'
p153
sS'answer'
p154
Vtest test test
p155
sS'answerId'
p156
I13
sg33
(lp157
(dp158
g36
g37
sg38
g103
sg39
g40
sg41
g42
sg43
I23
sasassI5
(dp159
S'question'
p160
(dp161
S'username'
p162
VJean
p163
sS'tags'
p164
(lp165
(dp166
S'key'
p167
I0
sS'label'
p168
S'tag0'
p169
sa(dp170
g167
I1
sg168
S'tag1'
p171
sa(dp172
g167
I2
sg168
S'tag2'
p173
sa(dp174
g167
I3
sg168
S'tag3'
p175
sa(dp176
g167
I4
sg168
S'tag4'
p177
sasS'userId'
p178
I1
sg160
Vtest
p179
sS'date'
p180
S'2017-12-03'
p181
sS'subject'
p182
Vtest
p183
ssS'answers'
p184
(lp185
ssI6
(dp186
S'question'
p187
(dp188
S'username'
p189
VJean
p190
sS'tags'
p191
(lp192
(dp193
S'key'
p194
I0
sS'label'
p195
S'tag0'
p196
sa(dp197
g194
I1
sg195
S'tag1'
p198
sa(dp199
g194
I2
sg195
S'tag2'
p200
sa(dp201
g194
I3
sg195
S'tag3'
p202
sa(dp203
g194
I4
sg195
S'tag4'
p204
sasS'userId'
p205
I1
sg187
Vtest
p206
sS'date'
p207
S'2017-12-03'
p208
sS'subject'
p209
Vtest
p210
ssS'answers'
p211
(lp212
ssI7
(dp213
S'question'
p214
(dp215
S'username'
p216
VJean
p217
sS'tags'
p218
(lp219
(dp220
S'key'
p221
I0
sS'label'
p222
S'tag0'
p223
sa(dp224
g221
I1
sg222
S'tag1'
p225
sa(dp226
g221
I2
sg222
S'tag2'
p227
sa(dp228
g221
I3
sg222
S'tag3'
p229
sasS'userId'
p230
I1
sg214
Vtest
p231
sS'date'
p232
S'2017-12-03'
p233
sS'subject'
p234
Vtest
p235
ssS'answers'
p236
(lp237
ssI8
(dp238
S'question'
p239
(dp240
S'username'
p241
VJean
p242
sS'tags'
p243
(lp244
(dp245
S'key'
p246
I0
sS'label'
p247
S'tag0'
p248
sa(dp249
g246
I1
sg247
S'tag1'
p250
sa(dp251
g246
I2
sg247
S'tag2'
p252
sa(dp253
g246
I3
sg247
S'tag3'
p254
sasS'userId'
p255
I1
sg239
Vtest
p256
sS'date'
p257
S'2017-12-03'
p258
sS'subject'
p259
Vtest
p260
ssS'answers'
p261
(lp262
ssI9
(dp263
S'question'
p264
(dp265
S'username'
p266
VJean
p267
sS'tags'
p268
(lp269
(dp270
S'key'
p271
I0
sS'label'
p272
S'tag0'
p273
sa(dp274
g271
I1
sg272
S'tag1'
p275
sa(dp276
g271
I2
sg272
S'tag2'
p277
sa(dp278
g271
I3
sg272
S'tag3'
p279
sa(dp280
g271
I4
sg272
S'tag4'
p281
sa(dp282
g271
I5
sg272
S'tag5'
p283
sasS'userId'
p284
I1
sg264
Vtest
p285
sS'date'
p286
S'2017-12-03'
p287
sS'subject'
p288
Vtest
p289
ssS'answers'
p290
(lp291
ssI10
(dp292
S'question'
p293
(dp294
S'username'
p295
VJean
p296
sS'tags'
p297
(lp298
(dp299
S'key'
p300
I0
sS'label'
p301
S'tag0'
p302
sa(dp303
g300
I1
sg301
S'tag1'
p304
sa(dp305
g300
I2
sg301
S'tag2'
p306
sa(dp307
g300
I3
sg301
S'tag3'
p308
sasS'userId'
p309
I1
sg293
Vtest
p310
sS'date'
p311
S'2017-12-03'
p312
sS'subject'
p313
Vtest
p314
ssS'answers'
p315
(lp316
ssI11
(dp317
S'question'
p318
(dp319
S'username'
p320
VJean
p321
sS'tags'
p322
(lp323
(dp324
S'key'
p325
I0
sS'label'
p326
S'tag0'
p327
sasS'userId'
p328
I1
sg318
Vtest
p329
sS'date'
p330
S'2017-12-03'
p331
sS'subject'
p332
Vtest
p333
ssS'answers'
p334
(lp335
ssI12
(dp336
S'question'
p337
(dp338
S'username'
p339
VJean
p340
sS'tags'
p341
(lp342
(dp343
S'key'
p344
I0
sS'label'
p345
S'tag0'
p346
sa(dp347
g344
I1
sg345
S'tag1'
p348
sasS'userId'
p349
I1
sg337
Vtest
p350
sS'date'
p351
S'2017-12-03'
p352
sS'subject'
p353
Vtest
p354
ssS'answers'
p355
(lp356
ssI13
(dp357
S'question'
p358
(dp359
S'username'
p360
VJean
p361
sS'tags'
p362
(lp363
(dp364
S'key'
p365
I0
sS'label'
p366
S'tag0'
p367
sa(dp368
g365
I1
sg366
S'tag1'
p369
sa(dp370
g365
I2
sg366
S'tag2'
p371
sa(dp372
g365
I3
sg366
S'tag3'
p373
sa(dp374
g365
I4
sg366
S'tag4'
p375
sa(dp376
g365
I5
sg366
S'tag5'
p377
sasS'userId'
p378
I1
sg358
Vtest
p379
sS'date'
p380
S'2017-12-03'
p381
sS'subject'
p382
Vtest
p383
ssS'answers'
p384
(lp385
ssI14
(dp386
S'question'
p387
(dp388
S'username'
p389
VJean
p390
sS'tags'
p391
(lp392
(dp393
S'key'
p394
I0
sS'label'
p395
S'tag0'
p396
sa(dp397
g394
I1
sg395
S'tag1'
p398
sa(dp399
g394
I2
sg395
S'tag2'
p400
sa(dp401
g394
I3
sg395
S'tag3'
p402
sasS'userId'
p403
I1
sg387
Vtest
p404
sS'date'
p405
S'2017-12-03'
p406
sS'subject'
p407
Vtest
p408
ssS'answers'
p409
(lp410
ssI15
(dp411
S'question'
p412
(dp413
S'username'
p414
VJean
p415
sS'tags'
p416
(lp417
(dp418
S'key'
p419
I0
sS'label'
p420
S'tag0'
p421
sa(dp422
g419
I1
sg420
S'tag1'
p423
sa(dp424
g419
I2
sg420
S'tag2'
p425
sasS'userId'
p426
I1
sg412
Vtest
p427
sS'date'
p428
S'2017-12-03'
p429
sS'subject'
p430
Vtest
p431
ssS'answers'
p432
(lp433
ss.